; Function Attrs: nounwind uwtable
define range(i32 -1, 1) i32 @H5Pset_fapl_core(i64 noundef %0, i64 noundef %1, i1 noundef zeroext %2) local_unnamed_addr #0 {
  %4 = alloca %struct.H5FD_core_fapl_t, align 8
  %5 = alloca %struct.H5CX_node_t, align 8
  %6 = zext i1 %2 to i8
  call void @llvm.lifetime.start.p0(i64 24, ptr nonnull %4) #18
  call void @llvm.lifetime.start.p0(i64 480, ptr nonnull %5) #18
  call void @llvm.memset.p0.i64(ptr noundef nonnull align 8 dereferenceable(480) %5, i8 0, i64 480, i1 false)
  %7 = load i8, ptr @H5_libinit_g, align 1, !tbaa !3, !range !7, !noundef !8
  %8 = trunc nuw i8 %7 to i1
  %9 = load i8, ptr @H5_libterm_g, align 1, !range !7
  %10 = trunc nuw i8 %9 to i1
  %11 = select i1 %8, i1 true, i1 %10
  br i1 %11, label %19, label %12, !prof !9

12:                                               ; preds = %3
  %13 = tail call i32 @H5_init_library() #18
  %14 = icmp slt i32 %13, 0
  br i1 %14, label %15, label %._crit_edge, !prof !12

._crit_edge:                                      ; preds = %12
  %.pre = load i8, ptr @H5_libterm_g, align 1, !range !7
  br label %19

15:                                               ; preds = %12
  %16 = load i64, ptr @H5E_FUNC_g, align 8, !tbaa !10
  %17 = load i64, ptr @H5E_CANTINIT_g, align 8, !tbaa !10
  %18 = tail call i32 (ptr, ptr, i32, i64, i64, ptr, ...) @H5E_printf_stack(ptr noundef nonnull @.str.1, ptr noundef nonnull @__func__.H5Pset_fapl_core, i32 noundef 588, i64 noundef %16, i64 noundef %17, ptr noundef nonnull @.str.3) #18
  br label %.thread22

19:                                               ; preds = %._crit_edge, %3
  %20 = phi i8 [ %.pre, %._crit_edge ], [ %9, %3 ]
  %21 = load i8, ptr @H5FD_init_g, align 1, !tbaa !3, !range !7, !noundef !8
  %22 = trunc nuw i8 %21 to i1
  %23 = trunc nuw i8 %20 to i1
  %24 = select i1 %22, i1 true, i1 %23
  br i1 %24, label %32, label %25, !prof !9

25:                                               ; preds = %19
  store i8 1, ptr @H5FD_init_g, align 1, !tbaa !3
  %26 = tail call i32 @H5FD__init_package() #18
  %27 = icmp slt i32 %26, 0
  br i1 %27, label %28, label %32, !prof !13

28:                                               ; preds = %25
  store i8 0, ptr @H5FD_init_g, align 1, !tbaa !3
  %29 = load i64, ptr @H5E_FUNC_g, align 8, !tbaa !10
  %30 = load i64, ptr @H5E_CANTINIT_g, align 8, !tbaa !10
  %31 = tail call i32 (ptr, ptr, i32, i64, i64, ptr, ...) @H5E_printf_stack(ptr noundef nonnull @.str.1, ptr noundef nonnull @__func__.H5Pset_fapl_core, i32 noundef 588, i64 noundef %29, i64 noundef %30, ptr noundef nonnull @.str.4) #18
  br label %.thread22

32:                                               ; preds = %19, %25
  %33 = call i32 @H5CX_push(ptr noundef nonnull %5) #18
  %34 = icmp slt i32 %33, 0
  br i1 %34, label %35, label %39, !prof !12

35:                                               ; preds = %32
  %36 = load i64, ptr @H5E_FUNC_g, align 8, !tbaa !10
  %37 = load i64, ptr @H5E_CANTSET_g, align 8, !tbaa !10
  %38 = call i32 (ptr, ptr, i32, i64, i64, ptr, ...) @H5E_printf_stack(ptr noundef nonnull @.str.1, ptr noundef nonnull @__func__.H5Pset_fapl_core, i32 noundef 588, i64 noundef %36, i64 noundef %37, ptr noundef nonnull @.str.5) #18
  br label %.thread22

39:                                               ; preds = %32
  %40 = call i32 @H5E_clear_stack() #18
  %41 = load i64, ptr @H5P_CLS_FILE_ACCESS_ID_g, align 8, !tbaa !10
  %42 = call ptr @H5P_object_verify(i64 noundef %0, i64 noundef %41, i1 noundef zeroext false) #18
  %43 = icmp eq ptr %42, null
  br i1 %43, label %44, label %48, !prof !14

44:                                               ; preds = %39
  %45 = load i64, ptr @H5E_ARGS_g, align 8, !tbaa !10
  %46 = load i64, ptr @H5E_BADTYPE_g, align 8, !tbaa !10
  %47 = call i32 (ptr, ptr, i32, i64, i64, ptr, ...) @H5E_printf_stack(ptr noundef nonnull @.str.1, ptr noundef nonnull @__func__.H5Pset_fapl_core, i32 noundef 592, i64 noundef %45, i64 noundef %46, ptr noundef nonnull @.str.11) #18
  br label %.thread28

48:                                               ; preds = %39
  %49 = getelementptr inbounds nuw i8, ptr %4, i64 8
  store i64 0, ptr %49, align 8
  store i64 %1, ptr %4, align 8, !tbaa !16
  %50 = getelementptr inbounds nuw i8, ptr %4, i64 8
  store i8 %6, ptr %50, align 8, !tbaa !18
  %51 = getelementptr inbounds nuw i8, ptr %4, i64 16
  store i64 524288, ptr %51, align 8, !tbaa !20
  %52 = load i64, ptr @H5FD_CORE_id_g, align 8, !tbaa !10
  %53 = call i32 @H5P_set_driver(ptr noundef nonnull %42, i64 noundef %52, ptr noundef nonnull %4, ptr noundef null) #18
  %54 = icmp slt i32 %53, 0
  br i1 %54, label %55, label %60, !prof !14

55:                                               ; preds = %48
  %56 = load i64, ptr @H5E_PLIST_g, align 8, !tbaa !10
  %57 = load i64, ptr @H5E_CANTSET_g, align 8, !tbaa !10
  %58 = call i32 (ptr, ptr, i32, i64, i64, ptr, ...) @H5E_printf_stack(ptr noundef nonnull @.str.1, ptr noundef nonnull @__func__.H5Pset_fapl_core, i32 noundef 603, i64 noundef %56, i64 noundef %57, ptr noundef nonnull @.str.9) #18
  br label %.thread28

.thread28:                                        ; preds = %55, %44
  %59 = call i32 @H5CX_pop(i1 noundef zeroext true) #18
  br label %.thread22

60:                                               ; preds = %48
  %61 = call i32 @H5CX_pop(i1 noundef zeroext true) #18
  br label %63

.thread22:                                        ; preds = %35, %28, %15, %.thread28
  %62 = call i32 @H5E_dump_api_stack() #18
  br label %63

63:                                               ; preds = %60, %.thread22
  %.0121725 = phi i32 [ -1, %.thread22 ], [ 0, %60 ]
  call void @llvm.lifetime.end.p0(i64 480, ptr nonnull %5) #18
  call void @llvm.lifetime.end.p0(i64 24, ptr nonnull %4) #18
  ret i32 %.0121725
}